	.file	"main.c"
	.text
Ltext0:
	.globl	_A5WCBF
	.data
	.align 4
_A5WCBF:
	.long	_A7_OnCreate
	.long	_A7_OnClose
	.long	_A7_OnPaint
	.long	_A7_OnSize
	.long	_A7_OnIdle
	.long	_A7_OnKeyDown
	.comm	_A7GL, 48, 5
	.globl	_pGL
	.align 4
_pGL:
	.long	_A7GL
	.comm	_GLP_Std, 4, 2
	.comm	_GLS_sv, 4, 2
	.comm	_GLS_sf, 4, 2
	.comm	_GLVBO_V, 4, 2
	.comm	_GLVBO_VC, 4, 2
	.comm	_GLIBO, 4, 2
	.comm	_GLS_a_coord, 4, 2
	.comm	_GLS_a_color, 4, 2
	.comm	_GLS_u_mvp, 4, 2
	.globl	__VC
	.bss
	.align 4
__VC:
	.space 4
	.section .rdata,"dr"
LC0:
	.ascii "../data/000.vs\0"
LC1:
	.ascii "../data/000.fs\0"
LC2:
	.ascii "a_coord\0"
LC3:
	.ascii "a_color\0"
LC4:
	.ascii "u_mvp\0"
LC10:
	.ascii "../data/teapot_n_glass.obj\0"
LC11:
	.ascii "%u %u %u\12\0"
	.text
	.globl	_A7_OnCreate
	.def	_A7_OnCreate;	.scl	2;	.type	32;	.endef
_A7_OnCreate:
LFB21:
	.file 1 "src/main.c"
	.loc 1 36 0
	.cfi_startproc
	pushl	%ebp
	.cfi_def_cfa_offset 8
	.cfi_offset 5, -8
	movl	%esp, %ebp
	.cfi_def_cfa_register 5
	pushl	%ebx
	subl	$116, %esp
	.cfi_offset 3, -12
	.loc 1 37 0
	movl	_pGL, %eax
	movl	$48, 8(%esp)
	movl	$0, 4(%esp)
	movl	%eax, (%esp)
	call	_memset
	.loc 1 38 0
	movl	_pGL, %eax
	movl	8(%ebp), %edx
	movl	(%edx), %edx
	movl	%edx, (%eax)
	.loc 1 39 0
	movl	_pGL, %eax
	movl	$32, 16(%eax)
	.loc 1 40 0
	movl	_pGL, %eax
	movl	$16, 20(%eax)
	.loc 1 41 0
	movl	_pGL, %eax
	movl	$256, 24(%eax)
	.loc 1 42 0
	movl	_pGL, %eax
	movl	$128, 28(%eax)
	.loc 1 43 0
	movl	_pGL, %eax
	movl	%eax, (%esp)
	call	_A5GL_rInit
	.loc 1 45 0
	movl	_pGL, %eax
	movl	%eax, (%esp)
	call	_A5GL_rGetEmptyShader
	movl	%eax, %ebx
	movl	$LC0, 4(%esp)
	movl	$35633, (%esp)
	call	_A5GL_rCreateShader
	movl	%eax, (%ebx)
	movl	(%ebx), %eax
	movl	%eax, _GLS_sv
	.loc 1 46 0
	movl	_pGL, %eax
	movl	%eax, (%esp)
	call	_A5GL_rGetEmptyShader
	movl	%eax, %ebx
	movl	$LC1, 4(%esp)
	movl	$35632, (%esp)
	call	_A5GL_rCreateShader
	movl	%eax, (%ebx)
	movl	(%ebx), %eax
	movl	%eax, _GLS_sf
	.loc 1 47 0
	movl	_pGL, %eax
	movl	%eax, (%esp)
	call	_A5GL_rGetEmptyProgram
	movl	%eax, %ebx
	movl	_GLS_sf, %edx
	movl	_GLS_sv, %eax
	movl	%edx, 4(%esp)
	movl	%eax, (%esp)
	call	_A5GL_rCreateProgram
	movl	%eax, (%ebx)
	movl	(%ebx), %eax
	movl	%eax, _GLP_Std
	.loc 1 49 0
	movl	_glGetAttribLocation, %edx
	movl	_GLP_Std, %eax
	movl	$LC2, 4(%esp)
	movl	%eax, (%esp)
	call	*%edx
LVL0:
	subl	$8, %esp
	movl	%eax, _GLS_a_coord
	.loc 1 50 0
	movl	_glGetAttribLocation, %edx
	movl	_GLP_Std, %eax
	movl	$LC3, 4(%esp)
	movl	%eax, (%esp)
	call	*%edx
LVL1:
	subl	$8, %esp
	movl	%eax, _GLS_a_color
	.loc 1 51 0
	movl	_glGetUniformLocation, %edx
	movl	_GLP_Std, %eax
	movl	$LC4, 4(%esp)
	movl	%eax, (%esp)
	call	*%edx
LVL2:
	subl	$8, %esp
	movl	%eax, _GLS_u_mvp
	.loc 1 54 0
	movl	_pGL, %eax
	movl	%eax, (%esp)
	call	_A5GL_rGetEmptyBuffer
	movl	%eax, %ebx
	movl	$35048, 8(%esp)
	movl	$32, 4(%esp)
	movl	$6000, (%esp)
	call	_A5GL_rCreateVBO
	movl	%eax, (%ebx)
	movl	(%ebx), %eax
	movl	%eax, _GLVBO_V
	.loc 1 58 0
	movl	_glBindBuffer, %edx
	movl	_GLVBO_V, %eax
	movl	%eax, 4(%esp)
	movl	$34962, (%esp)
	call	*%edx
LVL3:
	subl	$8, %esp
	.loc 1 59 0
	movl	_glMapBuffer, %eax
	movl	$35001, 4(%esp)
	movl	$34962, (%esp)
	call	*%eax
LVL4:
	subl	$8, %esp
	movl	%eax, -24(%ebp)
LBB2:
	.loc 1 60 0
	movl	-24(%ebp), %eax
	fld1
	fchs
	fstps	(%eax)
	movl	-24(%ebp), %eax
	addl	$32, %eax
	fldz
	fstps	(%eax)
	movl	-24(%ebp), %eax
	addl	$64, %eax
	fld1
	fstps	(%eax)
	.loc 1 61 0
	movl	-24(%ebp), %eax
	fld1
	fchs
	fstps	4(%eax)
	movl	-24(%ebp), %eax
	addl	$32, %eax
	fld1
	fstps	4(%eax)
	movl	-24(%ebp), %eax
	addl	$64, %eax
	fld1
	fchs
	fstps	4(%eax)
	.loc 1 62 0
	movl	-24(%ebp), %eax
	fldz
	fstps	8(%eax)
	movl	-24(%ebp), %eax
	addl	$32, %eax
	fldz
	fstps	8(%eax)
	movl	-24(%ebp), %eax
	addl	$64, %eax
	fldz
	fstps	8(%eax)
	.loc 1 63 0
	movl	-24(%ebp), %eax
	fld1
	fstps	12(%eax)
	movl	-24(%ebp), %eax
	addl	$32, %eax
	fld1
	fstps	12(%eax)
	movl	-24(%ebp), %eax
	addl	$64, %eax
	fld1
	fstps	12(%eax)
	.loc 1 64 0
	movl	-24(%ebp), %eax
	addl	$16, %eax
	fldz
	fstps	(%eax)
	movl	-24(%ebp), %eax
	addl	$48, %eax
	flds	LC8
	fstps	(%eax)
	movl	-24(%ebp), %eax
	addl	$80, %eax
	fld1
	fstps	(%eax)
	.loc 1 65 0
	movl	-24(%ebp), %eax
	addl	$16, %eax
	fldz
	fstps	4(%eax)
	movl	-24(%ebp), %eax
	addl	$48, %eax
	fld1
	fstps	4(%eax)
	movl	-24(%ebp), %eax
	addl	$80, %eax
	fldz
	fstps	4(%eax)
	.loc 1 66 0
	movl	-24(%ebp), %eax
	addl	$16, %eax
	flds	LC8
	fstps	8(%eax)
	movl	-24(%ebp), %eax
	addl	$48, %eax
	flds	LC8
	fstps	8(%eax)
	movl	-24(%ebp), %eax
	addl	$80, %eax
	flds	LC8
	fstps	8(%eax)
	.loc 1 67 0
	movl	-24(%ebp), %eax
	addl	$16, %eax
	fld1
	fstps	12(%eax)
	movl	-24(%ebp), %eax
	addl	$48, %eax
	fld1
	fstps	12(%eax)
	movl	-24(%ebp), %eax
	addl	$80, %eax
	fld1
	fstps	12(%eax)
	.loc 1 68 0
	movl	$6, -28(%ebp)
	.loc 1 69 0
	movl	-28(%ebp), %eax
	sall	$4, %eax
	movl	%eax, %edx
	movl	-24(%ebp), %eax
	addl	%edx, %eax
	fld1
	fchs
	fstps	(%eax)
	movl	-28(%ebp), %eax
	addl	$2, %eax
	sall	$4, %eax
	movl	%eax, %edx
	movl	-24(%ebp), %eax
	addl	%edx, %eax
	flds	LC9
	fstps	(%eax)
	movl	-28(%ebp), %eax
	addl	$4, %eax
	sall	$4, %eax
	movl	%eax, %edx
	movl	-24(%ebp), %eax
	addl	%edx, %eax
	fldz
	fstps	(%eax)
	.loc 1 70 0
	movl	-28(%ebp), %eax
	sall	$4, %eax
	movl	%eax, %edx
	movl	-24(%ebp), %eax
	addl	%edx, %eax
	fldz
	fstps	4(%eax)
	movl	-28(%ebp), %eax
	addl	$2, %eax
	sall	$4, %eax
	movl	%eax, %edx
	movl	-24(%ebp), %eax
	addl	%edx, %eax
	flds	LC9
	fstps	4(%eax)
	movl	-28(%ebp), %eax
	addl	$4, %eax
	sall	$4, %eax
	movl	%eax, %edx
	movl	-24(%ebp), %eax
	addl	%edx, %eax
	fldz
	fstps	4(%eax)
	.loc 1 71 0
	movl	-28(%ebp), %eax
	sall	$4, %eax
	movl	%eax, %edx
	movl	-24(%ebp), %eax
	addl	%edx, %eax
	flds	LC9
	fstps	8(%eax)
	movl	-28(%ebp), %eax
	addl	$2, %eax
	sall	$4, %eax
	movl	%eax, %edx
	movl	-24(%ebp), %eax
	addl	%edx, %eax
	flds	LC9
	fstps	8(%eax)
	movl	-28(%ebp), %eax
	addl	$4, %eax
	sall	$4, %eax
	movl	%eax, %edx
	movl	-24(%ebp), %eax
	addl	%edx, %eax
	flds	LC9
	fstps	8(%eax)
	.loc 1 72 0
	movl	-28(%ebp), %eax
	sall	$4, %eax
	movl	%eax, %edx
	movl	-24(%ebp), %eax
	addl	%edx, %eax
	fld1
	fstps	12(%eax)
	movl	-28(%ebp), %eax
	addl	$2, %eax
	sall	$4, %eax
	movl	%eax, %edx
	movl	-24(%ebp), %eax
	addl	%edx, %eax
	fld1
	fstps	12(%eax)
	movl	-28(%ebp), %eax
	addl	$4, %eax
	sall	$4, %eax
	movl	%eax, %edx
	movl	-24(%ebp), %eax
	addl	%edx, %eax
	fld1
	fstps	12(%eax)
	.loc 1 73 0
	movl	-28(%ebp), %eax
	addl	$1, %eax
	sall	$4, %eax
	movl	%eax, %edx
	movl	-24(%ebp), %eax
	addl	%edx, %eax
	fldz
	fstps	(%eax)
	movl	-28(%ebp), %eax
	addl	$3, %eax
	sall	$4, %eax
	movl	%eax, %edx
	movl	-24(%ebp), %eax
	addl	%edx, %eax
	flds	LC8
	fstps	(%eax)
	movl	-28(%ebp), %eax
	addl	$5, %eax
	sall	$4, %eax
	movl	%eax, %edx
	movl	-24(%ebp), %eax
	addl	%edx, %eax
	fld1
	fstps	(%eax)
	.loc 1 74 0
	movl	-28(%ebp), %eax
	addl	$1, %eax
	sall	$4, %eax
	movl	%eax, %edx
	movl	-24(%ebp), %eax
	addl	%edx, %eax
	fldz
	fstps	4(%eax)
	movl	-28(%ebp), %eax
	addl	$3, %eax
	sall	$4, %eax
	movl	%eax, %edx
	movl	-24(%ebp), %eax
	addl	%edx, %eax
	fld1
	fstps	4(%eax)
	movl	-28(%ebp), %eax
	addl	$5, %eax
	sall	$4, %eax
	movl	%eax, %edx
	movl	-24(%ebp), %eax
	addl	%edx, %eax
	fldz
	fstps	4(%eax)
	.loc 1 75 0
	movl	-28(%ebp), %eax
	addl	$1, %eax
	sall	$4, %eax
	movl	%eax, %edx
	movl	-24(%ebp), %eax
	addl	%edx, %eax
	flds	LC8
	fstps	8(%eax)
	movl	-28(%ebp), %eax
	addl	$3, %eax
	sall	$4, %eax
	movl	%eax, %edx
	movl	-24(%ebp), %eax
	addl	%edx, %eax
	flds	LC8
	fstps	8(%eax)
	movl	-28(%ebp), %eax
	addl	$5, %eax
	sall	$4, %eax
	movl	%eax, %edx
	movl	-24(%ebp), %eax
	addl	%edx, %eax
	flds	LC8
	fstps	8(%eax)
	.loc 1 76 0
	movl	-28(%ebp), %eax
	addl	$1, %eax
	sall	$4, %eax
	movl	%eax, %edx
	movl	-24(%ebp), %eax
	addl	%edx, %eax
	fld1
	fstps	12(%eax)
	movl	-28(%ebp), %eax
	addl	$3, %eax
	sall	$4, %eax
	movl	%eax, %edx
	movl	-24(%ebp), %eax
	addl	%edx, %eax
	fld1
	fstps	12(%eax)
	movl	-28(%ebp), %eax
	addl	$5, %eax
	sall	$4, %eax
	movl	%eax, %edx
	movl	-24(%ebp), %eax
	addl	%edx, %eax
	fld1
	fstps	12(%eax)
	.loc 1 77 0
	addl	$6, -28(%ebp)
	.loc 1 78 0
	movl	-28(%ebp), %eax
	sall	$4, %eax
	movl	%eax, %edx
	movl	-24(%ebp), %eax
	addl	%edx, %eax
	fldz
	fstps	(%eax)
	movl	-28(%ebp), %eax
	addl	$2, %eax
	sall	$4, %eax
	movl	%eax, %edx
	movl	-24(%ebp), %eax
	addl	%edx, %eax
	flds	LC8
	fstps	(%eax)
	movl	-28(%ebp), %eax
	addl	$4, %eax
	sall	$4, %eax
	movl	%eax, %edx
	movl	-24(%ebp), %eax
	addl	%edx, %eax
	fld1
	fstps	(%eax)
	.loc 1 79 0
	movl	-28(%ebp), %eax
	sall	$4, %eax
	movl	%eax, %edx
	movl	-24(%ebp), %eax
	addl	%edx, %eax
	fldz
	fstps	4(%eax)
	movl	-28(%ebp), %eax
	addl	$2, %eax
	sall	$4, %eax
	movl	%eax, %edx
	movl	-24(%ebp), %eax
	addl	%edx, %eax
	flds	LC9
	fstps	4(%eax)
	movl	-28(%ebp), %eax
	addl	$4, %eax
	sall	$4, %eax
	movl	%eax, %edx
	movl	-24(%ebp), %eax
	addl	%edx, %eax
	fldz
	fstps	4(%eax)
	.loc 1 80 0
	movl	-28(%ebp), %eax
	sall	$4, %eax
	movl	%eax, %edx
	movl	-24(%ebp), %eax
	addl	%edx, %eax
	flds	LC9
	fstps	8(%eax)
	movl	-28(%ebp), %eax
	addl	$2, %eax
	sall	$4, %eax
	movl	%eax, %edx
	movl	-24(%ebp), %eax
	addl	%edx, %eax
	flds	LC9
	fstps	8(%eax)
	movl	-28(%ebp), %eax
	addl	$4, %eax
	sall	$4, %eax
	movl	%eax, %edx
	movl	-24(%ebp), %eax
	addl	%edx, %eax
	flds	LC9
	fstps	8(%eax)
	.loc 1 81 0
	movl	-28(%ebp), %eax
	sall	$4, %eax
	movl	%eax, %edx
	movl	-24(%ebp), %eax
	addl	%edx, %eax
	fld1
	fstps	12(%eax)
	movl	-28(%ebp), %eax
	addl	$2, %eax
	sall	$4, %eax
	movl	%eax, %edx
	movl	-24(%ebp), %eax
	addl	%edx, %eax
	fld1
	fstps	12(%eax)
	movl	-28(%ebp), %eax
	addl	$4, %eax
	sall	$4, %eax
	movl	%eax, %edx
	movl	-24(%ebp), %eax
	addl	%edx, %eax
	fld1
	fstps	12(%eax)
	.loc 1 82 0
	movl	-28(%ebp), %eax
	addl	$1, %eax
	sall	$4, %eax
	movl	%eax, %edx
	movl	-24(%ebp), %eax
	addl	%edx, %eax
	fldz
	fstps	(%eax)
	movl	-28(%ebp), %eax
	addl	$3, %eax
	sall	$4, %eax
	movl	%eax, %edx
	movl	-24(%ebp), %eax
	addl	%edx, %eax
	flds	LC8
	fstps	(%eax)
	movl	-28(%ebp), %eax
	addl	$5, %eax
	sall	$4, %eax
	movl	%eax, %edx
	movl	-24(%ebp), %eax
	addl	%edx, %eax
	fld1
	fstps	(%eax)
	.loc 1 83 0
	movl	-28(%ebp), %eax
	addl	$1, %eax
	sall	$4, %eax
	movl	%eax, %edx
	movl	-24(%ebp), %eax
	addl	%edx, %eax
	fldz
	fstps	4(%eax)
	movl	-28(%ebp), %eax
	addl	$3, %eax
	sall	$4, %eax
	movl	%eax, %edx
	movl	-24(%ebp), %eax
	addl	%edx, %eax
	fld1
	fstps	4(%eax)
	movl	-28(%ebp), %eax
	addl	$5, %eax
	sall	$4, %eax
	movl	%eax, %edx
	movl	-24(%ebp), %eax
	addl	%edx, %eax
	fldz
	fstps	4(%eax)
	.loc 1 84 0
	movl	-28(%ebp), %eax
	addl	$1, %eax
	sall	$4, %eax
	movl	%eax, %edx
	movl	-24(%ebp), %eax
	addl	%edx, %eax
	flds	LC8
	fstps	8(%eax)
	movl	-28(%ebp), %eax
	addl	$3, %eax
	sall	$4, %eax
	movl	%eax, %edx
	movl	-24(%ebp), %eax
	addl	%edx, %eax
	flds	LC8
	fstps	8(%eax)
	movl	-28(%ebp), %eax
	addl	$5, %eax
	sall	$4, %eax
	movl	%eax, %edx
	movl	-24(%ebp), %eax
	addl	%edx, %eax
	flds	LC8
	fstps	8(%eax)
	.loc 1 85 0
	movl	-28(%ebp), %eax
	addl	$1, %eax
	sall	$4, %eax
	movl	%eax, %edx
	movl	-24(%ebp), %eax
	addl	%edx, %eax
	fld1
	fstps	12(%eax)
	movl	-28(%ebp), %eax
	addl	$3, %eax
	sall	$4, %eax
	movl	%eax, %edx
	movl	-24(%ebp), %eax
	addl	%edx, %eax
	fld1
	fstps	12(%eax)
	movl	-28(%ebp), %eax
	addl	$5, %eax
	sall	$4, %eax
	movl	%eax, %edx
	movl	-24(%ebp), %eax
	addl	%edx, %eax
	fld1
	fstps	12(%eax)
LBE2:
LBB3:
	.loc 1 90 0
	leal	-76(%ebp), %eax
	movl	%eax, 4(%esp)
	movl	$LC10, (%esp)
	call	_A5STD_rLoadFile
	movl	%eax, -32(%ebp)
	.loc 1 91 0
	movl	$18, -12(%ebp)
	.loc 1 92 0
	movl	$160000, (%esp)
	call	_malloc
	movl	%eax, -36(%ebp)
	.loc 1 93 0
	movl	$160000, (%esp)
	call	_malloc
	movl	%eax, -40(%ebp)
	.loc 1 94 0
	movl	$1, -16(%ebp)
	movl	$1, -20(%ebp)
LBB4:
	.loc 1 96 0
	movl	-32(%ebp), %eax
	movl	%eax, -80(%ebp)
	jmp	L2
L52:
	.loc 1 97 0
	movl	-80(%ebp), %eax
	movzbl	(%eax), %eax
	cmpb	$10, %al
	jne	L3
	.loc 1 97 0 is_stmt 0 discriminator 1
	movl	-80(%ebp), %eax
	addl	$1, %eax
	movl	%eax, -80(%ebp)
L3:
	.loc 1 98 0 is_stmt 1
	movl	-80(%ebp), %eax
	movzbl	(%eax), %eax
	cmpb	$118, %al
	jne	L4
	.loc 1 99 0
	movl	-80(%ebp), %eax
	addl	$1, %eax
	movl	%eax, -80(%ebp)
	.loc 1 100 0
	movl	-80(%ebp), %eax
	movzbl	(%eax), %eax
	cmpb	$32, %al
	jne	L5
	.loc 1 102 0
	movl	-16(%ebp), %eax
	sall	$4, %eax
	movl	%eax, %edx
	movl	-36(%ebp), %eax
	leal	(%edx,%eax), %ebx
	movl	-80(%ebp), %eax
	leal	-80(%ebp), %edx
	movl	%edx, 4(%esp)
	movl	%eax, (%esp)
	call	_strtof
	fstps	-92(%ebp)
	movl	-92(%ebp), %eax
	movl	%eax, (%ebx)
	.loc 1 103 0
	movl	-16(%ebp), %eax
	sall	$4, %eax
	movl	%eax, %edx
	movl	-36(%ebp), %eax
	leal	(%edx,%eax), %ebx
	movl	-80(%ebp), %eax
	leal	-80(%ebp), %edx
	movl	%edx, 4(%esp)
	movl	%eax, (%esp)
	call	_strtof
	fstps	-92(%ebp)
	movl	-92(%ebp), %eax
	movl	%eax, 4(%ebx)
	.loc 1 104 0
	movl	-16(%ebp), %eax
	sall	$4, %eax
	movl	%eax, %edx
	movl	-36(%ebp), %eax
	leal	(%edx,%eax), %ebx
	movl	-80(%ebp), %eax
	leal	-80(%ebp), %edx
	movl	%edx, 4(%esp)
	movl	%eax, (%esp)
	call	_strtof
	fstps	-92(%ebp)
	movl	-92(%ebp), %eax
	movl	%eax, 8(%ebx)
	.loc 1 105 0
	movl	-16(%ebp), %eax
	sall	$4, %eax
	movl	%eax, %edx
	movl	-36(%ebp), %eax
	addl	%edx, %eax
	fld1
	fstps	12(%eax)
	.loc 1 106 0
	addl	$1, -16(%ebp)
	.loc 1 107 0
	jmp	L6
L7:
	.loc 1 107 0 is_stmt 0 discriminator 3
	movl	-80(%ebp), %eax
	addl	$1, %eax
	movl	%eax, -80(%ebp)
L6:
	.loc 1 107 0 discriminator 1
	movl	-80(%ebp), %eax
	movzbl	(%eax), %eax
	cmpb	$10, %al
	je	L2
	.loc 1 107 0 discriminator 2
	movl	-80(%ebp), %eax
	movzbl	(%eax), %eax
	testb	%al, %al
	jne	L7
	jmp	L2
L5:
	.loc 1 108 0 is_stmt 1
	movl	-80(%ebp), %eax
	movzbl	(%eax), %eax
	cmpb	$110, %al
	jne	L11
	.loc 1 110 0
	movl	-20(%ebp), %eax
	sall	$4, %eax
	movl	%eax, %edx
	movl	-40(%ebp), %eax
	leal	(%edx,%eax), %ebx
	movl	-80(%ebp), %eax
	leal	-80(%ebp), %edx
	movl	%edx, 4(%esp)
	movl	%eax, (%esp)
	call	_strtof
	fstps	-92(%ebp)
	movl	-92(%ebp), %eax
	movl	%eax, (%ebx)
	.loc 1 111 0
	movl	-20(%ebp), %eax
	sall	$4, %eax
	movl	%eax, %edx
	movl	-40(%ebp), %eax
	leal	(%edx,%eax), %ebx
	movl	-80(%ebp), %eax
	leal	-80(%ebp), %edx
	movl	%edx, 4(%esp)
	movl	%eax, (%esp)
	call	_strtof
	fstps	-92(%ebp)
	movl	-92(%ebp), %eax
	movl	%eax, 4(%ebx)
	.loc 1 112 0
	movl	-20(%ebp), %eax
	sall	$4, %eax
	movl	%eax, %edx
	movl	-40(%ebp), %eax
	leal	(%edx,%eax), %ebx
	movl	-80(%ebp), %eax
	leal	-80(%ebp), %edx
	movl	%edx, 4(%esp)
	movl	%eax, (%esp)
	call	_strtof
	fstps	-92(%ebp)
	movl	-92(%ebp), %eax
	movl	%eax, 8(%ebx)
	.loc 1 113 0
	movl	-20(%ebp), %eax
	sall	$4, %eax
	movl	%eax, %edx
	movl	-40(%ebp), %eax
	addl	%edx, %eax
	fldz
	fstps	12(%eax)
	.loc 1 114 0
	addl	$1, -20(%ebp)
	.loc 1 115 0
	jmp	L9
L10:
	.loc 1 115 0 is_stmt 0 discriminator 3
	movl	-80(%ebp), %eax
	addl	$1, %eax
	movl	%eax, -80(%ebp)
L9:
	.loc 1 115 0 discriminator 1
	movl	-80(%ebp), %eax
	movzbl	(%eax), %eax
	cmpb	$10, %al
	je	L2
	.loc 1 115 0 discriminator 2
	movl	-80(%ebp), %eax
	movzbl	(%eax), %eax
	testb	%al, %al
	jne	L10
	jmp	L2
L12:
	.loc 1 116 0 is_stmt 1 discriminator 3
	movl	-80(%ebp), %eax
	addl	$1, %eax
	movl	%eax, -80(%ebp)
L11:
	.loc 1 116 0 is_stmt 0 discriminator 1
	movl	-80(%ebp), %eax
	movzbl	(%eax), %eax
	cmpb	$10, %al
	je	L2
	.loc 1 116 0 discriminator 2
	movl	-80(%ebp), %eax
	movzbl	(%eax), %eax
	testb	%al, %al
	jne	L12
	jmp	L2
L4:
	.loc 1 117 0 is_stmt 1
	movl	-80(%ebp), %eax
	movzbl	(%eax), %eax
	cmpb	$102, %al
	jne	L50
LBB5:
	.loc 1 121 0
	movl	-80(%ebp), %eax
	addl	$1, %eax
	movl	%eax, -80(%ebp)
	.loc 1 122 0
	movl	-80(%ebp), %eax
	movl	%eax, (%esp)
	call	_atoi
	movl	%eax, -44(%ebp)
	.loc 1 123 0
	jmp	L14
L16:
	.loc 1 123 0 is_stmt 0 discriminator 3
	movl	-80(%ebp), %eax
	addl	$1, %eax
	movl	%eax, -80(%ebp)
L14:
	.loc 1 123 0 discriminator 1
	movl	-80(%ebp), %eax
	movzbl	(%eax), %eax
	cmpb	$47, %al
	je	L17
	.loc 1 123 0 discriminator 2
	movl	-80(%ebp), %eax
	movzbl	(%eax), %eax
	testb	%al, %al
	jne	L16
	.loc 1 124 0 is_stmt 1
	jmp	L17
L19:
	.loc 1 124 0 is_stmt 0 discriminator 3
	movl	-80(%ebp), %eax
	addl	$1, %eax
	movl	%eax, -80(%ebp)
L17:
	.loc 1 124 0 discriminator 1
	movl	-80(%ebp), %eax
	movzbl	(%eax), %eax
	cmpb	$47, %al
	jne	L18
	.loc 1 124 0 discriminator 2
	movl	-80(%ebp), %eax
	movzbl	(%eax), %eax
	testb	%al, %al
	jne	L19
L18:
	.loc 1 125 0 is_stmt 1
	movl	-80(%ebp), %eax
	movl	%eax, (%esp)
	call	_atoi
	movl	%eax, -48(%ebp)
	.loc 1 126 0
	jmp	L20
L22:
	.loc 1 126 0 is_stmt 0 discriminator 3
	movl	-80(%ebp), %eax
	addl	$1, %eax
	movl	%eax, -80(%ebp)
L20:
	.loc 1 126 0 discriminator 1
	movl	-80(%ebp), %eax
	movzbl	(%eax), %eax
	cmpb	$32, %al
	je	L21
	.loc 1 126 0 discriminator 2
	movl	-80(%ebp), %eax
	movzbl	(%eax), %eax
	testb	%al, %al
	jne	L22
L21:
	.loc 1 127 0 is_stmt 1
	movl	-80(%ebp), %eax
	movl	%eax, (%esp)
	call	_atoi
	movl	%eax, -52(%ebp)
	.loc 1 128 0
	jmp	L23
L25:
	.loc 1 128 0 is_stmt 0 discriminator 3
	movl	-80(%ebp), %eax
	addl	$1, %eax
	movl	%eax, -80(%ebp)
L23:
	.loc 1 128 0 discriminator 1
	movl	-80(%ebp), %eax
	movzbl	(%eax), %eax
	cmpb	$47, %al
	je	L26
	.loc 1 128 0 discriminator 2
	movl	-80(%ebp), %eax
	movzbl	(%eax), %eax
	testb	%al, %al
	jne	L25
	.loc 1 129 0 is_stmt 1
	jmp	L26
L28:
	.loc 1 129 0 is_stmt 0 discriminator 3
	movl	-80(%ebp), %eax
	addl	$1, %eax
	movl	%eax, -80(%ebp)
L26:
	.loc 1 129 0 discriminator 1
	movl	-80(%ebp), %eax
	movzbl	(%eax), %eax
	cmpb	$47, %al
	jne	L27
	.loc 1 129 0 discriminator 2
	movl	-80(%ebp), %eax
	movzbl	(%eax), %eax
	testb	%al, %al
	jne	L28
L27:
	.loc 1 130 0 is_stmt 1
	movl	-80(%ebp), %eax
	movl	%eax, (%esp)
	call	_atoi
	movl	%eax, -56(%ebp)
	.loc 1 131 0
	jmp	L29
L31:
	.loc 1 131 0 is_stmt 0 discriminator 3
	movl	-80(%ebp), %eax
	addl	$1, %eax
	movl	%eax, -80(%ebp)
L29:
	.loc 1 131 0 discriminator 1
	movl	-80(%ebp), %eax
	movzbl	(%eax), %eax
	cmpb	$32, %al
	je	L30
	.loc 1 131 0 discriminator 2
	movl	-80(%ebp), %eax
	movzbl	(%eax), %eax
	testb	%al, %al
	jne	L31
L30:
	.loc 1 132 0 is_stmt 1
	movl	-80(%ebp), %eax
	movl	%eax, (%esp)
	call	_atoi
	movl	%eax, -60(%ebp)
	.loc 1 133 0
	jmp	L32
L34:
	.loc 1 133 0 is_stmt 0 discriminator 3
	movl	-80(%ebp), %eax
	addl	$1, %eax
	movl	%eax, -80(%ebp)
L32:
	.loc 1 133 0 discriminator 1
	movl	-80(%ebp), %eax
	movzbl	(%eax), %eax
	cmpb	$47, %al
	je	L35
	.loc 1 133 0 discriminator 2
	movl	-80(%ebp), %eax
	movzbl	(%eax), %eax
	testb	%al, %al
	jne	L34
	.loc 1 134 0 is_stmt 1
	jmp	L35
L37:
	.loc 1 134 0 is_stmt 0 discriminator 3
	movl	-80(%ebp), %eax
	addl	$1, %eax
	movl	%eax, -80(%ebp)
L35:
	.loc 1 134 0 discriminator 1
	movl	-80(%ebp), %eax
	movzbl	(%eax), %eax
	cmpb	$47, %al
	jne	L36
	.loc 1 134 0 discriminator 2
	movl	-80(%ebp), %eax
	movzbl	(%eax), %eax
	testb	%al, %al
	jne	L37
L36:
	.loc 1 135 0 is_stmt 1
	movl	-80(%ebp), %eax
	movl	%eax, (%esp)
	call	_atoi
	movl	%eax, -64(%ebp)
	.loc 1 136 0
	jmp	L38
L40:
	.loc 1 136 0 is_stmt 0 discriminator 3
	movl	-80(%ebp), %eax
	addl	$1, %eax
	movl	%eax, -80(%ebp)
L38:
	.loc 1 136 0 discriminator 1
	movl	-80(%ebp), %eax
	movzbl	(%eax), %eax
	cmpb	$32, %al
	je	L39
	.loc 1 136 0 discriminator 2
	movl	-80(%ebp), %eax
	movzbl	(%eax), %eax
	testb	%al, %al
	jne	L40
L39:
	.loc 1 137 0 is_stmt 1
	movl	-80(%ebp), %eax
	movl	%eax, (%esp)
	call	_atoi
	movl	%eax, -68(%ebp)
	.loc 1 138 0
	jmp	L41
L43:
	.loc 1 138 0 is_stmt 0 discriminator 3
	movl	-80(%ebp), %eax
	addl	$1, %eax
	movl	%eax, -80(%ebp)
L41:
	.loc 1 138 0 discriminator 1
	movl	-80(%ebp), %eax
	movzbl	(%eax), %eax
	cmpb	$47, %al
	je	L44
	.loc 1 138 0 discriminator 2
	movl	-80(%ebp), %eax
	movzbl	(%eax), %eax
	testb	%al, %al
	jne	L43
	.loc 1 139 0 is_stmt 1
	jmp	L44
L46:
	.loc 1 139 0 is_stmt 0 discriminator 3
	movl	-80(%ebp), %eax
	addl	$1, %eax
	movl	%eax, -80(%ebp)
L44:
	.loc 1 139 0 discriminator 1
	movl	-80(%ebp), %eax
	movzbl	(%eax), %eax
	cmpb	$47, %al
	jne	L45
	.loc 1 139 0 discriminator 2
	movl	-80(%ebp), %eax
	movzbl	(%eax), %eax
	testb	%al, %al
	jne	L46
L45:
	.loc 1 140 0 is_stmt 1
	movl	-80(%ebp), %eax
	movl	%eax, (%esp)
	call	_atoi
	movl	%eax, -72(%ebp)
	.loc 1 141 0
	jmp	L47
L49:
	.loc 1 141 0 is_stmt 0 discriminator 3
	movl	-80(%ebp), %eax
	addl	$1, %eax
	movl	%eax, -80(%ebp)
L47:
	.loc 1 141 0 discriminator 1
	movl	-80(%ebp), %eax
	movzbl	(%eax), %eax
	cmpb	$10, %al
	je	L48
	.loc 1 141 0 discriminator 2
	movl	-80(%ebp), %eax
	movzbl	(%eax), %eax
	testb	%al, %al
	jne	L49
L48:
	.loc 1 143 0 is_stmt 1
	movl	-12(%ebp), %eax
	sall	$4, %eax
	movl	%eax, %edx
	movl	-24(%ebp), %eax
	addl	%edx, %eax
	movl	-44(%ebp), %edx
	movl	%edx, %ecx
	sall	$4, %ecx
	movl	-36(%ebp), %edx
	addl	%ecx, %edx
	movl	(%edx), %ecx
	movl	%ecx, (%eax)
	movl	4(%edx), %ecx
	movl	%ecx, 4(%eax)
	movl	8(%edx), %ecx
	movl	%ecx, 8(%eax)
	movl	12(%edx), %edx
	movl	%edx, 12(%eax)
	addl	$1, -12(%ebp)
	.loc 1 144 0
	movl	-12(%ebp), %eax
	sall	$4, %eax
	movl	%eax, %edx
	movl	-24(%ebp), %eax
	addl	%edx, %eax
	movl	-48(%ebp), %edx
	movl	%edx, %ecx
	sall	$4, %ecx
	movl	-40(%ebp), %edx
	addl	%ecx, %edx
	movl	(%edx), %ecx
	movl	%ecx, (%eax)
	movl	4(%edx), %ecx
	movl	%ecx, 4(%eax)
	movl	8(%edx), %ecx
	movl	%ecx, 8(%eax)
	movl	12(%edx), %edx
	movl	%edx, 12(%eax)
	addl	$1, -12(%ebp)
	.loc 1 145 0
	movl	-12(%ebp), %eax
	sall	$4, %eax
	movl	%eax, %edx
	movl	-24(%ebp), %eax
	addl	%edx, %eax
	movl	-52(%ebp), %edx
	movl	%edx, %ecx
	sall	$4, %ecx
	movl	-36(%ebp), %edx
	addl	%ecx, %edx
	movl	(%edx), %ecx
	movl	%ecx, (%eax)
	movl	4(%edx), %ecx
	movl	%ecx, 4(%eax)
	movl	8(%edx), %ecx
	movl	%ecx, 8(%eax)
	movl	12(%edx), %edx
	movl	%edx, 12(%eax)
	addl	$1, -12(%ebp)
	.loc 1 146 0
	movl	-12(%ebp), %eax
	sall	$4, %eax
	movl	%eax, %edx
	movl	-24(%ebp), %eax
	addl	%edx, %eax
	movl	-56(%ebp), %edx
	movl	%edx, %ecx
	sall	$4, %ecx
	movl	-40(%ebp), %edx
	addl	%ecx, %edx
	movl	(%edx), %ecx
	movl	%ecx, (%eax)
	movl	4(%edx), %ecx
	movl	%ecx, 4(%eax)
	movl	8(%edx), %ecx
	movl	%ecx, 8(%eax)
	movl	12(%edx), %edx
	movl	%edx, 12(%eax)
	addl	$1, -12(%ebp)
	.loc 1 147 0
	movl	-12(%ebp), %eax
	sall	$4, %eax
	movl	%eax, %edx
	movl	-24(%ebp), %eax
	addl	%edx, %eax
	movl	-60(%ebp), %edx
	movl	%edx, %ecx
	sall	$4, %ecx
	movl	-36(%ebp), %edx
	addl	%ecx, %edx
	movl	(%edx), %ecx
	movl	%ecx, (%eax)
	movl	4(%edx), %ecx
	movl	%ecx, 4(%eax)
	movl	8(%edx), %ecx
	movl	%ecx, 8(%eax)
	movl	12(%edx), %edx
	movl	%edx, 12(%eax)
	addl	$1, -12(%ebp)
	.loc 1 148 0
	movl	-12(%ebp), %eax
	sall	$4, %eax
	movl	%eax, %edx
	movl	-24(%ebp), %eax
	addl	%edx, %eax
	movl	-64(%ebp), %edx
	movl	%edx, %ecx
	sall	$4, %ecx
	movl	-40(%ebp), %edx
	addl	%ecx, %edx
	movl	(%edx), %ecx
	movl	%ecx, (%eax)
	movl	4(%edx), %ecx
	movl	%ecx, 4(%eax)
	movl	8(%edx), %ecx
	movl	%ecx, 8(%eax)
	movl	12(%edx), %edx
	movl	%edx, 12(%eax)
	addl	$1, -12(%ebp)
	.loc 1 149 0
	movl	-12(%ebp), %eax
	sall	$4, %eax
	movl	%eax, %edx
	movl	-24(%ebp), %eax
	addl	%edx, %eax
	movl	-60(%ebp), %edx
	movl	%edx, %ecx
	sall	$4, %ecx
	movl	-36(%ebp), %edx
	addl	%ecx, %edx
	movl	(%edx), %ecx
	movl	%ecx, (%eax)
	movl	4(%edx), %ecx
	movl	%ecx, 4(%eax)
	movl	8(%edx), %ecx
	movl	%ecx, 8(%eax)
	movl	12(%edx), %edx
	movl	%edx, 12(%eax)
	addl	$1, -12(%ebp)
	.loc 1 150 0
	movl	-12(%ebp), %eax
	sall	$4, %eax
	movl	%eax, %edx
	movl	-24(%ebp), %eax
	addl	%edx, %eax
	movl	-64(%ebp), %edx
	movl	%edx, %ecx
	sall	$4, %ecx
	movl	-40(%ebp), %edx
	addl	%ecx, %edx
	movl	(%edx), %ecx
	movl	%ecx, (%eax)
	movl	4(%edx), %ecx
	movl	%ecx, 4(%eax)
	movl	8(%edx), %ecx
	movl	%ecx, 8(%eax)
	movl	12(%edx), %edx
	movl	%edx, 12(%eax)
	addl	$1, -12(%ebp)
	.loc 1 151 0
	movl	-12(%ebp), %eax
	sall	$4, %eax
	movl	%eax, %edx
	movl	-24(%ebp), %eax
	addl	%edx, %eax
	movl	-68(%ebp), %edx
	movl	%edx, %ecx
	sall	$4, %ecx
	movl	-36(%ebp), %edx
	addl	%ecx, %edx
	movl	(%edx), %ecx
	movl	%ecx, (%eax)
	movl	4(%edx), %ecx
	movl	%ecx, 4(%eax)
	movl	8(%edx), %ecx
	movl	%ecx, 8(%eax)
	movl	12(%edx), %edx
	movl	%edx, 12(%eax)
	addl	$1, -12(%ebp)
	.loc 1 152 0
	movl	-12(%ebp), %eax
	sall	$4, %eax
	movl	%eax, %edx
	movl	-24(%ebp), %eax
	addl	%edx, %eax
	movl	-72(%ebp), %edx
	movl	%edx, %ecx
	sall	$4, %ecx
	movl	-40(%ebp), %edx
	addl	%ecx, %edx
	movl	(%edx), %ecx
	movl	%ecx, (%eax)
	movl	4(%edx), %ecx
	movl	%ecx, 4(%eax)
	movl	8(%edx), %ecx
	movl	%ecx, 8(%eax)
	movl	12(%edx), %edx
	movl	%edx, 12(%eax)
	addl	$1, -12(%ebp)
	.loc 1 153 0
	movl	-12(%ebp), %eax
	sall	$4, %eax
	movl	%eax, %edx
	movl	-24(%ebp), %eax
	addl	%edx, %eax
	movl	-44(%ebp), %edx
	movl	%edx, %ecx
	sall	$4, %ecx
	movl	-36(%ebp), %edx
	addl	%ecx, %edx
	movl	(%edx), %ecx
	movl	%ecx, (%eax)
	movl	4(%edx), %ecx
	movl	%ecx, 4(%eax)
	movl	8(%edx), %ecx
	movl	%ecx, 8(%eax)
	movl	12(%edx), %edx
	movl	%edx, 12(%eax)
	addl	$1, -12(%ebp)
	.loc 1 154 0
	movl	-12(%ebp), %eax
	sall	$4, %eax
	movl	%eax, %edx
	movl	-24(%ebp), %eax
	addl	%edx, %eax
	movl	-48(%ebp), %edx
	movl	%edx, %ecx
	sall	$4, %ecx
	movl	-40(%ebp), %edx
	addl	%ecx, %edx
	movl	(%edx), %ecx
	movl	%ecx, (%eax)
	movl	4(%edx), %ecx
	movl	%ecx, 4(%eax)
	movl	8(%edx), %ecx
	movl	%ecx, 8(%eax)
	movl	12(%edx), %edx
	movl	%edx, 12(%eax)
	addl	$1, -12(%ebp)
LBE5:
	jmp	L2
L51:
	.loc 1 155 0 discriminator 3
	movl	-80(%ebp), %eax
	addl	$1, %eax
	movl	%eax, -80(%ebp)
L50:
	.loc 1 155 0 is_stmt 0 discriminator 1
	movl	-80(%ebp), %eax
	movzbl	(%eax), %eax
	cmpb	$10, %al
	je	L2
	.loc 1 155 0 discriminator 2
	movl	-80(%ebp), %eax
	movzbl	(%eax), %eax
	testb	%al, %al
	jne	L51
L2:
	.loc 1 96 0 is_stmt 1 discriminator 1
	movl	-80(%ebp), %eax
	movzbl	(%eax), %eax
	testb	%al, %al
	jne	L52
LBE4:
	.loc 1 157 0
	movl	-12(%ebp), %eax
	shrl	%eax
	movl	%eax, __VC
	.loc 1 159 0
	movl	__VC, %eax
	movl	-20(%ebp), %edx
	movl	%edx, 12(%esp)
	movl	-16(%ebp), %edx
	movl	%edx, 8(%esp)
	movl	%eax, 4(%esp)
	movl	$LC11, (%esp)
	call	_printf
	.loc 1 161 0
	movl	-36(%ebp), %eax
	movl	%eax, (%esp)
	call	_free
	.loc 1 162 0
	movl	-40(%ebp), %eax
	movl	%eax, (%esp)
	call	_free
	.loc 1 163 0
	movl	-32(%ebp), %eax
	movl	%eax, (%esp)
	call	_free
LBE3:
	.loc 1 165 0
	movl	_glUnmapBuffer, %eax
	movl	$34962, (%esp)
	call	*%eax
LVL5:
	subl	$4, %esp
	.loc 1 167 0
	movl	_glEnable, %eax
	movl	$3042, (%esp)
	call	*%eax
LVL6:
	subl	$4, %esp
	.loc 1 168 0
	movl	_glEnable, %eax
	movl	$2929, (%esp)
	call	*%eax
LVL7:
	subl	$4, %esp
	.loc 1 170 0
	movl	_glDepthFunc, %eax
	movl	$516, (%esp)
	call	*%eax
LVL8:
	subl	$4, %esp
	.loc 1 171 0
	movl	_glClearDepth, %eax
	fldz
	fstpl	(%esp)
	call	*%eax
LVL9:
	subl	$8, %esp
	.loc 1 172 0
	movl	_glBlendFunc, %eax
	movl	$771, 4(%esp)
	movl	$770, (%esp)
	call	*%eax
LVL10:
	subl	$8, %esp
	.loc 1 173 0
	nop
	movl	-4(%ebp), %ebx
	leave
	.cfi_restore 5
	.cfi_restore 3
	.cfi_def_cfa 4, 4
	ret
	.cfi_endproc
LFE21:
	.globl	_A7_OnClose
	.def	_A7_OnClose;	.scl	2;	.type	32;	.endef
_A7_OnClose:
LFB22:
	.loc 1 174 0
	.cfi_startproc
	pushl	%ebp
	.cfi_def_cfa_offset 8
	.cfi_offset 5, -8
	movl	%esp, %ebp
	.cfi_def_cfa_register 5
	subl	$24, %esp
	.loc 1 175 0
	movl	_pGL, %eax
	movl	%eax, (%esp)
	call	_A5GL_rFree
	.loc 1 176 0
	movl	$0, _pGL
	.loc 1 177 0
	movl	$0, (%esp)
	call	_PostQuitMessage@4
	subl	$4, %esp
	.loc 1 178 0
	nop
	leave
	.cfi_restore 5
	.cfi_def_cfa 4, 4
	ret
	.cfi_endproc
LFE22:
	.globl	_A7_OnPaint
	.def	_A7_OnPaint;	.scl	2;	.type	32;	.endef
_A7_OnPaint:
LFB23:
	.loc 1 179 0
	.cfi_startproc
	pushl	%ebp
	.cfi_def_cfa_offset 8
	.cfi_offset 5, -8
	movl	%esp, %ebp
	.cfi_def_cfa_register 5
	subl	$200, %esp
	.loc 1 180 0
	movl	_pGL, %eax
	testl	%eax, %eax
	je	L57
	.loc 1 181 0
	movl	_glClear, %eax
	movl	$16640, (%esp)
	call	*%eax
LVL11:
	subl	$4, %esp
	.loc 1 182 0
	movl	_glUseProgram, %edx
	movl	_GLP_Std, %eax
	movl	%eax, (%esp)
	call	*%edx
LVL12:
	subl	$4, %esp
	.loc 1 184 0
	movl	_glEnableVertexAttribArray, %eax
	movl	_GLS_a_coord, %edx
	movl	%edx, (%esp)
	call	*%eax
LVL13:
	subl	$4, %esp
	.loc 1 185 0
	movl	_glEnableVertexAttribArray, %eax
	movl	_GLS_a_color, %edx
	movl	%edx, (%esp)
	call	*%eax
LVL14:
	subl	$4, %esp
	.loc 1 187 0
	movl	8(%ebp), %eax
	movl	36(%eax), %eax
	movl	%eax, -168(%ebp)
	fildl	-168(%ebp)
	fstps	-156(%ebp)
	flds	-156(%ebp)
	fadd	%st(0), %st
	movl	8(%ebp), %eax
	movl	24(%eax), %eax
	movl	%eax, -168(%ebp)
	movl	$0, -164(%ebp)
	fildq	-168(%ebp)
	fstps	-156(%ebp)
	flds	-156(%ebp)
	fdivrp	%st, %st(1)
	fld1
	fsubrp	%st, %st(1)
	fstps	-12(%ebp)
	.loc 1 188 0
	movl	8(%ebp), %eax
	movl	40(%eax), %eax
	movl	%eax, -168(%ebp)
	fildl	-168(%ebp)
	fstps	-156(%ebp)
	flds	-156(%ebp)
	fadd	%st(0), %st
	movl	8(%ebp), %eax
	movl	24(%eax), %eax
	movl	%eax, -168(%ebp)
	movl	$0, -164(%ebp)
	fildq	-168(%ebp)
	fstps	-156(%ebp)
	flds	-156(%ebp)
	fdivrp	%st, %st(1)
	fld1
	fsubp	%st, %st(1)
	fstps	-16(%ebp)
	.loc 1 189 0
	call	_GetTickCount@0
	movl	%eax, -168(%ebp)
	movl	$0, -164(%ebp)
	fildq	-168(%ebp)
	fstps	-156(%ebp)
	flds	-156(%ebp)
	fldt	LC15
	fmulp	%st, %st(1)
	fstps	-20(%ebp)
	.loc 1 193 0
	movl	$4, 4(%esp)
	leal	-84(%ebp), %eax
	movl	%eax, (%esp)
	call	_A5M_rIdentityMN
	.loc 1 196 0
	movl	$4, 4(%esp)
	leal	-148(%ebp), %eax
	movl	%eax, (%esp)
	call	_A5M_rIdentityMN
	.loc 1 197 0
	flds	-20(%ebp)
	fstps	(%esp)
	call	_cosf
	fstps	-168(%ebp)
	movl	-168(%ebp), %eax
	movl	%eax, -148(%ebp)
	flds	-20(%ebp)
	fstps	(%esp)
	call	_sinf
	fstps	-168(%ebp)
	movl	-168(%ebp), %eax
	movl	%eax, -140(%ebp)
	.loc 1 198 0
	flds	-20(%ebp)
	fstps	(%esp)
	call	_sinf
	fchs
	fstps	-116(%ebp)
	flds	-20(%ebp)
	fstps	(%esp)
	call	_cosf
	fstps	-168(%ebp)
	movl	-168(%ebp), %eax
	movl	%eax, -108(%ebp)
	.loc 1 199 0
	movl	$4, 12(%esp)
	leal	-148(%ebp), %eax
	movl	%eax, 8(%esp)
	leal	-84(%ebp), %eax
	movl	%eax, 4(%esp)
	leal	-84(%ebp), %eax
	movl	%eax, (%esp)
	call	_A5M_rMulMMN
	.loc 1 201 0
	movl	$4, 4(%esp)
	leal	-148(%ebp), %eax
	movl	%eax, (%esp)
	call	_A5M_rIdentityMN
	.loc 1 202 0
	fld1
	fstps	-100(%ebp)
	.loc 1 203 0
	fld1
	fstps	-96(%ebp)
	.loc 1 204 0
	movl	$4, 12(%esp)
	leal	-148(%ebp), %eax
	movl	%eax, 8(%esp)
	leal	-84(%ebp), %eax
	movl	%eax, 4(%esp)
	leal	-84(%ebp), %eax
	movl	%eax, (%esp)
	call	_A5M_rMulMMN
	.loc 1 206 0
	movl	$4, 4(%esp)
	leal	-148(%ebp), %eax
	movl	%eax, (%esp)
	call	_A5M_rIdentityMN
	.loc 1 207 0
	flds	LC16
	fstps	-148(%ebp)
	.loc 1 208 0
	flds	LC16
	fstps	-128(%ebp)
	.loc 1 209 0
	flds	LC16
	fstps	-108(%ebp)
	.loc 1 210 0
	movl	$4, 12(%esp)
	leal	-148(%ebp), %eax
	movl	%eax, 8(%esp)
	leal	-84(%ebp), %eax
	movl	%eax, 4(%esp)
	leal	-84(%ebp), %eax
	movl	%eax, (%esp)
	call	_A5M_rMulMMN
	.loc 1 212 0
	movl	$4, 4(%esp)
	leal	-148(%ebp), %eax
	movl	%eax, (%esp)
	call	_A5M_rIdentityMN
	.loc 1 213 0
	flds	-12(%ebp)
	fstps	-100(%ebp)
	.loc 1 214 0
	flds	-16(%ebp)
	fstps	-96(%ebp)
	.loc 1 215 0
	movl	$4, 12(%esp)
	leal	-148(%ebp), %eax
	movl	%eax, 8(%esp)
	leal	-84(%ebp), %eax
	movl	%eax, 4(%esp)
	leal	-84(%ebp), %eax
	movl	%eax, (%esp)
	call	_A5M_rMulMMN
	.loc 1 217 0
	movl	_glUniformMatrix4fv, %ecx
	movl	_GLS_u_mvp, %eax
	leal	-84(%ebp), %edx
	movl	%edx, 12(%esp)
	movl	$0, 8(%esp)
	movl	$1, 4(%esp)
	movl	%eax, (%esp)
	call	*%ecx
LVL15:
	subl	$16, %esp
	.loc 1 219 0
	movl	_glBindBuffer, %edx
	movl	_GLVBO_V, %eax
	movl	%eax, 4(%esp)
	movl	$34962, (%esp)
	call	*%edx
LVL16:
	subl	$8, %esp
	.loc 1 220 0
	movl	_glVertexAttribPointer, %eax
	movl	_GLS_a_coord, %edx
	movl	$0, 20(%esp)
	movl	$32, 16(%esp)
	movl	$0, 12(%esp)
	movl	$5126, 8(%esp)
	movl	$4, 4(%esp)
	movl	%edx, (%esp)
	call	*%eax
LVL17:
	subl	$24, %esp
	.loc 1 222 0
	movl	_glVertexAttribPointer, %eax
	movl	_GLS_a_color, %edx
	movl	$16, 20(%esp)
	movl	$32, 16(%esp)
	movl	$0, 12(%esp)
	movl	$5126, 8(%esp)
	movl	$4, 4(%esp)
	movl	%edx, (%esp)
	call	*%eax
LVL18:
	subl	$24, %esp
	.loc 1 224 0
	movl	_glDrawArrays, %eax
	movl	__VC, %edx
	addl	$9, %edx
	movl	%edx, 8(%esp)
	movl	$0, 4(%esp)
	movl	$4, (%esp)
	call	*%eax
LVL19:
	subl	$12, %esp
	.loc 1 227 0
	movl	_glDisableVertexAttribArray, %eax
	movl	_GLS_a_coord, %edx
	movl	%edx, (%esp)
	call	*%eax
LVL20:
	subl	$4, %esp
	.loc 1 228 0
	movl	_glDisableVertexAttribArray, %eax
	movl	_GLS_a_color, %edx
	movl	%edx, (%esp)
	call	*%eax
LVL21:
	subl	$4, %esp
	.loc 1 230 0
	movl	_pGL, %eax
	movl	%eax, (%esp)
	call	_A5GL_rSwapBuffers
	jmp	L54
L57:
	.loc 1 180 0
	nop
L54:
	.loc 1 231 0
	leave
	.cfi_restore 5
	.cfi_def_cfa 4, 4
	ret
	.cfi_endproc
LFE23:
	.globl	_A7_OnSize
	.def	_A7_OnSize;	.scl	2;	.type	32;	.endef
_A7_OnSize:
LFB24:
	.loc 1 232 0
	.cfi_startproc
	pushl	%ebp
	.cfi_def_cfa_offset 8
	.cfi_offset 5, -8
	movl	%esp, %ebp
	.cfi_def_cfa_register 5
	subl	$24, %esp
	.loc 1 233 0
	movl	_glViewport, %edx
	movl	8(%ebp), %eax
	movl	28(%eax), %eax
	movl	%eax, %ecx
	movl	8(%ebp), %eax
	movl	24(%eax), %eax
	movl	%ecx, 12(%esp)
	movl	%eax, 8(%esp)
	movl	$0, 4(%esp)
	movl	$0, (%esp)
	call	*%edx
LVL22:
	subl	$16, %esp
	.loc 1 234 0
	movl	8(%ebp), %eax
	movl	(%eax), %eax
	movl	$0, 12(%esp)
	movl	$0, 8(%esp)
	movl	$15, 4(%esp)
	movl	%eax, (%esp)
	call	_PostMessageW@16
	subl	$16, %esp
	.loc 1 235 0
	nop
	leave
	.cfi_restore 5
	.cfi_def_cfa 4, 4
	ret
	.cfi_endproc
LFE24:
	.globl	_A7_OnIdle
	.def	_A7_OnIdle;	.scl	2;	.type	32;	.endef
_A7_OnIdle:
LFB25:
	.loc 1 236 0
	.cfi_startproc
	pushl	%ebp
	.cfi_def_cfa_offset 8
	.cfi_offset 5, -8
	movl	%esp, %ebp
	.cfi_def_cfa_register 5
	subl	$24, %esp
	.loc 1 237 0
	movl	8(%ebp), %eax
	movl	(%eax), %eax
	movl	$0, 12(%esp)
	movl	$0, 8(%esp)
	movl	$15, 4(%esp)
	movl	%eax, (%esp)
	call	_PostMessageW@16
	subl	$16, %esp
	.loc 1 238 0
	nop
	leave
	.cfi_restore 5
	.cfi_def_cfa 4, 4
	ret
	.cfi_endproc
LFE25:
	.globl	_A7_OnKeyDown
	.def	_A7_OnKeyDown;	.scl	2;	.type	32;	.endef
_A7_OnKeyDown:
LFB26:
	.loc 1 239 0
	.cfi_startproc
	pushl	%ebp
	.cfi_def_cfa_offset 8
	.cfi_offset 5, -8
	movl	%esp, %ebp
	.cfi_def_cfa_register 5
	subl	$24, %esp
	.loc 1 240 0
	movl	8(%ebp), %eax
	movl	32(%eax), %eax
	cmpl	$27, %eax
	je	L62
	.loc 1 246 0
	jmp	L63
L62:
	.loc 1 242 0
	movl	8(%ebp), %eax
	movl	(%eax), %eax
	movl	$0, 12(%esp)
	movl	$0, 8(%esp)
	movl	$16, 4(%esp)
	movl	%eax, (%esp)
	call	_PostMessageW@16
	subl	$16, %esp
	.loc 1 243 0
	nop
L63:
	.loc 1 246 0
	nop
	leave
	.cfi_restore 5
	.cfi_def_cfa 4, 4
	ret
	.cfi_endproc
LFE26:
	.section .rdata,"dr"
	.align 4
LC8:
	.long	1056964608
	.align 4
LC9:
	.long	-1090519040
	.align 16
LC15:
	.long	-1924145349
	.long	-2095944041
	.long	16373
	.align 4
LC16:
	.long	1048576000
	.text
Letext0:
	.file 2 "c:/mingw/include/windef.h"
	.file 3 "c:/mingw/lib/gcc/mingw32/6.3.0/include/stddef.h"
	.file 4 "c:/mingw/include/winnt.h"
	.file 5 "c:/mingw/include/stdlib.h"
	.file 6 "c:/mingw/include/stdio.h"
	.file 7 "../include/a5_log.h"
	.file 8 "../include/a5_math.h"
	.file 9 "../include/a5_wnd.h"
	.file 10 "../include/GL/glcorearb.h"
	.file 11 "c:/mingw/include/stdint.h"
	.file 12 "../include/a5_glext.h"
	.file 13 "../include/a5_gl.h"